; Function Attrs: mustprogress nounwind uwtable
define internal fastcc void @_ZNSt10unique_ptrIN5arrow6dlpack12_GLOBAL__N_110ManagerCtxESt14default_deleteIS3_EED2Ev(ptr noundef nonnull align 8 captures(none) dereferenceable(8) %0) unnamed_addr #2 align 2 personality ptr @__gxx_personality_v0 {
  %2 = load ptr, ptr %0, align 8, !tbaa !79
  %.not = icmp eq ptr %2, null
  br i1 %.not, label %26, label %3

3:                                                ; preds = %1
  %4 = getelementptr i8, ptr %2, i64 8
  %.val.i = load ptr, ptr %4, align 8, !tbaa !21
  %.not.i.i.i.i = icmp eq ptr %.val.i, null
  br i1 %.not.i.i.i.i, label %_ZNKSt14default_deleteIN5arrow6dlpack12_GLOBAL__N_110ManagerCtxEEclEPS3_.exit, label %5

5:                                                ; preds = %3
  %6 = getelementptr inbounds nuw i8, ptr %.val.i, i64 8
  %7 = load atomic i64, ptr %6 acquire, align 8
  %8 = icmp eq i64 %7, 4294967297
  %9 = trunc i64 %7 to i32
  br i1 %8, label %10, label %18

10:                                               ; preds = %5
  store i32 0, ptr %6, align 8, !tbaa !124
  %11 = getelementptr inbounds nuw i8, ptr %.val.i, i64 12
  store i32 0, ptr %11, align 4, !tbaa !126
  %12 = load ptr, ptr %.val.i, align 8, !tbaa !28
  %13 = getelementptr inbounds nuw i8, ptr %12, i64 16
  %14 = load ptr, ptr %13, align 8
  tail call void %14(ptr noundef nonnull align 8 dereferenceable(16) %.val.i) #17
  %15 = load ptr, ptr %.val.i, align 8, !tbaa !28
  %16 = getelementptr inbounds nuw i8, ptr %15, i64 24
  %17 = load ptr, ptr %16, align 8
  tail call void %17(ptr noundef nonnull align 8 dereferenceable(16) %.val.i) #17
  br label %_ZNKSt14default_deleteIN5arrow6dlpack12_GLOBAL__N_110ManagerCtxEEclEPS3_.exit

18:                                               ; preds = %5
  %19 = load i8, ptr @__libc_single_threaded, align 1, !tbaa !22
  %.not.i.i.i.i.i = icmp eq i8 %19, 0
  br i1 %.not.i.i.i.i.i, label %22, label %20

20:                                               ; preds = %18
  %21 = add nsw i32 %9, -1
  store i32 %21, ptr %6, align 4, !tbaa !23
  br label %_ZN9__gnu_cxx27__exchange_and_add_dispatchEPii.exit.i.i.i.i.i

22:                                               ; preds = %18
  %23 = atomicrmw volatile add ptr %6, i32 -1 acq_rel, align 4
  br label %_ZN9__gnu_cxx27__exchange_and_add_dispatchEPii.exit.i.i.i.i.i

_ZN9__gnu_cxx27__exchange_and_add_dispatchEPii.exit.i.i.i.i.i: ; preds = %22, %20
  %.0.i.i.i.i.i.i = phi i32 [ %9, %20 ], [ %23, %22 ]
  %24 = icmp eq i32 %.0.i.i.i.i.i.i, 1
  br i1 %24, label %25, label %_ZNKSt14default_deleteIN5arrow6dlpack12_GLOBAL__N_110ManagerCtxEEclEPS3_.exit, !prof !127

25:                                               ; preds = %_ZN9__gnu_cxx27__exchange_and_add_dispatchEPii.exit.i.i.i.i.i
  tail call void @_ZNSt16_Sp_counted_baseILN9__gnu_cxx12_Lock_policyE2EE24_M_release_last_use_coldEv(ptr noundef nonnull align 8 dereferenceable(16) %.val.i) #17
  br label %_ZNKSt14default_deleteIN5arrow6dlpack12_GLOBAL__N_110ManagerCtxEEclEPS3_.exit

_ZNKSt14default_deleteIN5arrow6dlpack12_GLOBAL__N_110ManagerCtxEEclEPS3_.exit: ; preds = %3, %10, %_ZN9__gnu_cxx27__exchange_and_add_dispatchEPii.exit.i.i.i.i.i, %25
  tail call void @_ZdlPvm(ptr noundef nonnull %2, i64 noundef 80) #18
  br label %26

26:                                               ; preds = %_ZNKSt14default_deleteIN5arrow6dlpack12_GLOBAL__N_110ManagerCtxEEclEPS3_.exit, %1
  store ptr null, ptr %0, align 8, !tbaa !79
  ret void
}